target datalayout = "e-m:e-p270:32:32-p271:32:32-p272:64:64-i64:64-i128:128-f80:128-n8:16:32:64-S128"
target triple = "x86_64-pc-linux-gnu"

%struct.Aig_Man_t_ = type { ptr, ptr, ptr, ptr, ptr, ptr, ptr, %struct.Aig_Obj_t_, i32, i32, i32, i32, i32, i32, [7 x i32], i32, ptr, i32, ptr, i32, ptr, i32, i32, i32, ptr, i32, i32, i32, i32, i32, ptr, ptr, i32, ptr, ptr, i32, ptr, ptr, i32, i32, i32, ptr, ptr, ptr, ptr, ptr, ptr, ptr, ptr, ptr, ptr, ptr, ptr, ptr, ptr, i32, ptr, ptr, ptr, ptr, i32, i64, i64, i64, ptr, ptr }
%struct.Aig_Obj_t_ = type { %union.anon, ptr, ptr, i64, i32, i32, %union.anon.0 }
%union.anon = type { ptr }
%union.anon.0 = type { ptr }
%struct.Vec_Ptr_t_ = type { i32, i32, ptr }

@.str.26 = private unnamed_addr constant [2 x i8] c"\0A\00", align 1
@.str.67 = private unnamed_addr constant [17 x i8] c"Control signal:\0A\00", align 1
@.str.68 = private unnamed_addr constant [3 x i8] c"\0A\0A\00", align 1

; Function Attrs: inlinehint nounwind uwtable
define internal ptr @Aig_Regular(ptr noundef %0) #4 {
  %2 = alloca ptr, align 8
  store ptr %0, ptr %2, align 8, !tbaa !24
  %3 = load ptr, ptr %2, align 8, !tbaa !24
  %4 = ptrtoint ptr %3 to i64
  %5 = and i64 %4, -2
  %6 = inttoptr i64 %5 to ptr
  ret ptr %6
}

; Function Attrs: inlinehint nounwind uwtable
define internal i32 @Aig_ObjIsCi(ptr noundef %0) #4 {
  %2 = alloca ptr, align 8
  store ptr %0, ptr %2, align 8, !tbaa !24
  %3 = load ptr, ptr %2, align 8, !tbaa !24
  %4 = getelementptr inbounds nuw %struct.Aig_Obj_t_, ptr %3, i32 0, i32 3
  %5 = load i64, ptr %4, align 8
  %6 = and i64 %5, 7
  %7 = trunc i64 %6 to i32
  %8 = icmp eq i32 %7, 2
  %9 = zext i1 %8 to i32
  ret i32 %9
}

; Function Attrs: inlinehint nounwind uwtable
define internal ptr @Aig_ObjFanin1(ptr noundef %0) #4 {
  %2 = alloca ptr, align 8
  store ptr %0, ptr %2, align 8, !tbaa !24
  %3 = load ptr, ptr %2, align 8, !tbaa !24
  %4 = getelementptr inbounds nuw %struct.Aig_Obj_t_, ptr %3, i32 0, i32 2
  %5 = load ptr, ptr %4, align 8, !tbaa !40
  %6 = call ptr @Aig_Regular(ptr noundef %5)
  ret ptr %6
}

; Function Attrs: inlinehint nounwind uwtable
define internal ptr @Aig_ObjFanin0(ptr noundef %0) #4 {
  %2 = alloca ptr, align 8
  store ptr %0, ptr %2, align 8, !tbaa !24
  %3 = load ptr, ptr %2, align 8, !tbaa !24
  %4 = getelementptr inbounds nuw %struct.Aig_Obj_t_, ptr %3, i32 0, i32 1
  %5 = load ptr, ptr %4, align 8, !tbaa !37
  %6 = call ptr @Aig_Regular(ptr noundef %5)
  ret ptr %6
}

; Function Attrs: inlinehint nounwind uwtable
define internal i32 @Aig_ObjIsNode(ptr noundef %0) #4 {
  %2 = alloca ptr, align 8
  store ptr %0, ptr %2, align 8, !tbaa !24
  %3 = load ptr, ptr %2, align 8, !tbaa !24
  %4 = getelementptr inbounds nuw %struct.Aig_Obj_t_, ptr %3, i32 0, i32 3
  %5 = load i64, ptr %4, align 8
  %6 = and i64 %5, 7
  %7 = trunc i64 %6 to i32
  %8 = icmp eq i32 %7, 5
  br i1 %8, label %16, label %9

9:                                                ; preds = %1
  %10 = load ptr, ptr %2, align 8, !tbaa !24
  %11 = getelementptr inbounds nuw %struct.Aig_Obj_t_, ptr %10, i32 0, i32 3
  %12 = load i64, ptr %11, align 8
  %13 = and i64 %12, 7
  %14 = trunc i64 %13 to i32
  %15 = icmp eq i32 %14, 6
  br label %16

16:                                               ; preds = %9, %1
  %17 = phi i1 [ true, %1 ], [ %15, %9 ]
  %18 = zext i1 %17 to i32
  ret i32 %18
}

; Function Attrs: inlinehint nounwind uwtable
define internal ptr @Vec_PtrEntry(ptr noundef %0, i32 noundef %1) #4 {
  %3 = alloca ptr, align 8
  %4 = alloca i32, align 4
  store ptr %0, ptr %3, align 8, !tbaa !32
  store i32 %1, ptr %4, align 4, !tbaa !22
  %5 = load ptr, ptr %3, align 8, !tbaa !32
  %6 = getelementptr inbounds nuw %struct.Vec_Ptr_t_, ptr %5, i32 0, i32 2
  %7 = load ptr, ptr %6, align 8, !tbaa !35
  %8 = load i32, ptr %4, align 4, !tbaa !22
  %9 = sext i32 %8 to i64
  %10 = getelementptr inbounds ptr, ptr %7, i64 %9
  %11 = load ptr, ptr %10, align 8, !tbaa !36
  ret ptr %11
}

; Function Attrs: inlinehint nounwind uwtable
define internal i32 @Vec_PtrSize(ptr noundef %0) #4 {
  %2 = alloca ptr, align 8
  store ptr %0, ptr %2, align 8, !tbaa !32
  %3 = load ptr, ptr %2, align 8, !tbaa !32
  %4 = getelementptr inbounds nuw %struct.Vec_Ptr_t_, ptr %3, i32 0, i32 1
  %5 = load i32, ptr %4, align 4, !tbaa !33
  ret i32 %5
}

; Function Attrs: inlinehint nounwind uwtable
define internal ptr @Aig_ManCi(ptr noundef %0, i32 noundef %1) #4 {
  %3 = alloca ptr, align 8
  %4 = alloca i32, align 4
  store ptr %0, ptr %3, align 8, !tbaa !3
  store i32 %1, ptr %4, align 4, !tbaa !22
  %5 = load ptr, ptr %3, align 8, !tbaa !3
  %6 = getelementptr inbounds nuw %struct.Aig_Man_t_, ptr %5, i32 0, i32 2
  %7 = load ptr, ptr %6, align 8, !tbaa !59
  %8 = load i32, ptr %4, align 4, !tbaa !22
  %9 = call ptr @Vec_PtrEntry(ptr noundef %7, i32 noundef %8)
  ret ptr %9
}

; Function Attrs: inlinehint nounwind uwtable
define internal i32 @Aig_ManCiNum(ptr noundef %0) #4 {
  %2 = alloca ptr, align 8
  store ptr %0, ptr %2, align 8, !tbaa !3
  %3 = load ptr, ptr %2, align 8, !tbaa !3
  %4 = getelementptr inbounds nuw %struct.Aig_Man_t_, ptr %3, i32 0, i32 14
  %5 = getelementptr inbounds [7 x i32], ptr %4, i64 0, i64 2
  %6 = load i32, ptr %5, align 8, !tbaa !22
  ret i32 %6
}

; Function Attrs: nounwind uwtable
define void @Aig_ManPrintControlFanouts(ptr noundef %0) #0 {
  %2 = alloca ptr, align 8
  %3 = alloca ptr, align 8
  %4 = alloca ptr, align 8
  %5 = alloca ptr, align 8
  %6 = alloca ptr, align 8
  %7 = alloca i32, align 4
  store ptr %0, ptr %2, align 8, !tbaa !3
  call void @llvm.lifetime.start.p0(i64 8, ptr %3) #10
  call void @llvm.lifetime.start.p0(i64 8, ptr %4) #10
  call void @llvm.lifetime.start.p0(i64 8, ptr %5) #10
  call void @llvm.lifetime.start.p0(i64 8, ptr %6) #10
  call void @llvm.lifetime.start.p0(i64 4, ptr %7) #10
  %8 = load ptr, ptr %2, align 8, !tbaa !3
  %9 = load ptr, ptr %2, align 8, !tbaa !3
  %10 = call i32 @Aig_ManCiNum(ptr noundef %9)
  %11 = sub nsw i32 %10, 1
  %12 = call ptr @Aig_ManCi(ptr noundef %8, i32 noundef %11)
  store ptr %12, ptr %6, align 8, !tbaa !24
  %13 = call i32 (ptr, ...) @printf(ptr noundef @.str.67)
  %14 = load ptr, ptr %2, align 8, !tbaa !3
  %15 = load ptr, ptr %6, align 8, !tbaa !24
  call void @Aig_ObjPrint(ptr noundef %14, ptr noundef %15)
  %16 = call i32 (ptr, ...) @printf(ptr noundef @.str.68)
  store i32 0, ptr %7, align 4, !tbaa !22
  br label %17

17:                                               ; preds = %79, %1
  %18 = load i32, ptr %7, align 4, !tbaa !22
  %19 = load ptr, ptr %2, align 8, !tbaa !3
  %20 = getelementptr inbounds nuw %struct.Aig_Man_t_, ptr %19, i32 0, i32 4
  %21 = load ptr, ptr %20, align 8, !tbaa !23
  %22 = call i32 @Vec_PtrSize(ptr noundef %21)
  %23 = icmp slt i32 %18, %22
  br i1 %23, label %24, label %30

24:                                               ; preds = %17
  %25 = load ptr, ptr %2, align 8, !tbaa !3
  %26 = getelementptr inbounds nuw %struct.Aig_Man_t_, ptr %25, i32 0, i32 4
  %27 = load ptr, ptr %26, align 8, !tbaa !23
  %28 = load i32, ptr %7, align 4, !tbaa !22
  %29 = call ptr @Vec_PtrEntry(ptr noundef %27, i32 noundef %28)
  store ptr %29, ptr %3, align 8, !tbaa !24
  br label %30

30:                                               ; preds = %24, %17
  %31 = phi i1 [ false, %17 ], [ true, %24 ]
  br i1 %31, label %32, label %82

32:                                               ; preds = %30
  %33 = load ptr, ptr %3, align 8, !tbaa !24
  %34 = icmp eq ptr %33, null
  br i1 %34, label %35, label %36

35:                                               ; preds = %32
  br label %78

36:                                               ; preds = %32
  %37 = load ptr, ptr %3, align 8, !tbaa !24
  %38 = call i32 @Aig_ObjIsNode(ptr noundef %37)
  %39 = icmp ne i32 %38, 0
  br i1 %39, label %41, label %40

40:                                               ; preds = %36
  br label %79

41:                                               ; preds = %36
  %42 = load ptr, ptr %3, align 8, !tbaa !24
  %43 = call ptr @Aig_ObjFanin0(ptr noundef %42)
  store ptr %43, ptr %4, align 8, !tbaa !24
  %44 = load ptr, ptr %3, align 8, !tbaa !24
  %45 = call ptr @Aig_ObjFanin1(ptr noundef %44)
  store ptr %45, ptr %5, align 8, !tbaa !24
  %46 = load ptr, ptr %4, align 8, !tbaa !24
  %47 = load ptr, ptr %6, align 8, !tbaa !24
  %48 = icmp eq ptr %46, %47
  br i1 %48, label %49, label %61

49:                                               ; preds = %41
  %50 = load ptr, ptr %5, align 8, !tbaa !24
  %51 = call i32 @Aig_ObjIsCi(ptr noundef %50)
  %52 = icmp ne i32 %51, 0
  br i1 %52, label %53, label %61

53:                                               ; preds = %49
  %54 = load ptr, ptr %2, align 8, !tbaa !3
  %55 = load ptr, ptr %3, align 8, !tbaa !24
  call void @Aig_ObjPrint(ptr noundef %54, ptr noundef %55)
  %56 = call i32 (ptr, ...) @printf(ptr noundef @.str.26)
  %57 = load ptr, ptr %2, align 8, !tbaa !3
  %58 = load ptr, ptr %5, align 8, !tbaa !24
  call void @Aig_ObjPrint(ptr noundef %57, ptr noundef %58)
  %59 = call i32 (ptr, ...) @printf(ptr noundef @.str.26)
  %60 = call i32 (ptr, ...) @printf(ptr noundef @.str.26)
  br label %61

61:                                               ; preds = %53, %49, %41
  %62 = load ptr, ptr %5, align 8, !tbaa !24
  %63 = load ptr, ptr %6, align 8, !tbaa !24
  %64 = icmp eq ptr %62, %63
  br i1 %64, label %65, label %77

65:                                               ; preds = %61
  %66 = load ptr, ptr %4, align 8, !tbaa !24
  %67 = call i32 @Aig_ObjIsCi(ptr noundef %66)
  %68 = icmp ne i32 %67, 0
  br i1 %68, label %69, label %77

69:                                               ; preds = %65
  %70 = load ptr, ptr %2, align 8, !tbaa !3
  %71 = load ptr, ptr %3, align 8, !tbaa !24
  call void @Aig_ObjPrint(ptr noundef %70, ptr noundef %71)
  %72 = call i32 (ptr, ...) @printf(ptr noundef @.str.26)
  %73 = load ptr, ptr %2, align 8, !tbaa !3
  %74 = load ptr, ptr %4, align 8, !tbaa !24
  call void @Aig_ObjPrint(ptr noundef %73, ptr noundef %74)
  %75 = call i32 (ptr, ...) @printf(ptr noundef @.str.26)
  %76 = call i32 (ptr, ...) @printf(ptr noundef @.str.26)
  br label %77

77:                                               ; preds = %69, %65, %61
  br label %78

78:                                               ; preds = %77, %35
  br label %79

79:                                               ; preds = %78, %40
  %80 = load i32, ptr %7, align 4, !tbaa !22
  %81 = add nsw i32 %80, 1
  store i32 %81, ptr %7, align 4, !tbaa !22
  br label %17, !llvm.loop !97

82:                                               ; preds = %30
  call void @llvm.lifetime.end.p0(i64 4, ptr %7) #10
  call void @llvm.lifetime.end.p0(i64 8, ptr %6) #10
  call void @llvm.lifetime.end.p0(i64 8, ptr %5) #10
  call void @llvm.lifetime.end.p0(i64 8, ptr %4) #10
  call void @llvm.lifetime.end.p0(i64 8, ptr %3) #10
  ret void
}