; Function Attrs: nounwind uwtable
define void @Aig_ManPrintControlFanouts(ptr noundef %0) local_unnamed_addr #1 {
  %2 = getelementptr i8, ptr %0, i64 136
  %.val36 = load i32, ptr %2, align 8, !tbaa !30
  %3 = getelementptr i8, ptr %0, i64 16
  %.val42 = load ptr, ptr %3, align 8, !tbaa !53
  %4 = getelementptr i8, ptr %.val42, i64 8
  %.val42.val = load ptr, ptr %4, align 8, !tbaa !24
  %5 = sext i32 %.val36 to i64
  %6 = getelementptr ptr, ptr %.val42.val, i64 %5
  %7 = getelementptr i8, ptr %6, i64 -8
  %8 = load ptr, ptr %7, align 8, !tbaa !25
  %puts = tail call i32 @puts(ptr nonnull dereferenceable(1) @str.2)
  tail call void @Aig_ObjPrint(ptr noundef %0, ptr noundef %8) #25
  %puts27 = tail call i32 @puts(ptr nonnull dereferenceable(1) @str.3)
  %9 = getelementptr inbounds nuw i8, ptr %0, i64 32
  %10 = load ptr, ptr %9, align 8, !tbaa !21
  %11 = getelementptr i8, ptr %10, i64 4
  %.val44 = load i32, ptr %11, align 4, !tbaa !22
  %12 = icmp sgt i32 %.val44, 0
  br i1 %12, label %.lr.ph, label %.critedge

.lr.ph:                                           ; preds = %1, %43
  %indvars.iv = phi i64 [ %indvars.iv.next, %43 ], [ 0, %1 ]
  %13 = phi ptr [ %44, %43 ], [ %10, %1 ]
  %14 = getelementptr i8, ptr %13, i64 8
  %.val35 = load ptr, ptr %14, align 8, !tbaa !24
  %15 = getelementptr inbounds nuw ptr, ptr %.val35, i64 %indvars.iv
  %16 = load ptr, ptr %15, align 8, !tbaa !25
  %17 = icmp eq ptr %16, null
  br i1 %17, label %43, label %18

18:                                               ; preds = %.lr.ph
  %19 = getelementptr i8, ptr %16, i64 24
  %.val41 = load i64, ptr %19, align 8
  %20 = trunc i64 %.val41 to i32
  %21 = and i32 %20, 7
  %22 = add nsw i32 %21, -7
  %narrow.i = icmp ult i32 %22, -2
  br i1 %narrow.i, label %43, label %23

23:                                               ; preds = %18
  %24 = getelementptr i8, ptr %16, i64 8
  %.val37 = load ptr, ptr %24, align 8, !tbaa !32
  %25 = ptrtoint ptr %.val37 to i64
  %26 = and i64 %25, -2
  %27 = inttoptr i64 %26 to ptr
  %28 = getelementptr i8, ptr %16, i64 16
  %.val38 = load ptr, ptr %28, align 8, !tbaa !35
  %29 = ptrtoint ptr %.val38 to i64
  %30 = and i64 %29, -2
  %31 = inttoptr i64 %30 to ptr
  %32 = icmp eq ptr %8, %27
  br i1 %32, label %33, label %37

33:                                               ; preds = %23
  %34 = getelementptr i8, ptr %31, i64 24
  %.val40 = load i64, ptr %34, align 8
  %35 = and i64 %.val40, 7
  %.not = icmp eq i64 %35, 2
  br i1 %.not, label %36, label %37

36:                                               ; preds = %33
  tail call void @Aig_ObjPrint(ptr noundef nonnull %0, ptr noundef nonnull %16) #25
  %putchar = tail call i32 @putchar(i32 10)
  tail call void @Aig_ObjPrint(ptr noundef nonnull %0, ptr noundef nonnull %31) #25
  %putchar29 = tail call i32 @putchar(i32 10)
  %putchar30 = tail call i32 @putchar(i32 10)
  br label %37

37:                                               ; preds = %36, %33, %23
  %38 = icmp eq ptr %8, %31
  br i1 %38, label %39, label %43

39:                                               ; preds = %37
  %40 = getelementptr i8, ptr %27, i64 24
  %.val39 = load i64, ptr %40, align 8
  %41 = and i64 %.val39, 7
  %.not43 = icmp eq i64 %41, 2
  br i1 %.not43, label %42, label %43

42:                                               ; preds = %39
  tail call void @Aig_ObjPrint(ptr noundef nonnull %0, ptr noundef nonnull %16) #25
  %putchar32 = tail call i32 @putchar(i32 10)
  tail call void @Aig_ObjPrint(ptr noundef nonnull %0, ptr noundef nonnull %27) #25
  %putchar33 = tail call i32 @putchar(i32 10)
  %putchar34 = tail call i32 @putchar(i32 10)
  br label %43

43:                                               ; preds = %.lr.ph, %42, %39, %37, %18
  %indvars.iv.next = add nuw nsw i64 %indvars.iv, 1
  %44 = load ptr, ptr %9, align 8, !tbaa !21
  %45 = getelementptr i8, ptr %44, i64 4
  %.val = load i32, ptr %45, align 4, !tbaa !22
  %46 = sext i32 %.val to i64
  %47 = icmp slt i64 %indvars.iv.next, %46
  br i1 %47, label %.lr.ph, label %.critedge, !llvm.loop !91

.critedge:                                        ; preds = %43, %1
  ret void
}